; Function Attrs: nounwind uwtable
define hidden i32 @luaK_codeABC(ptr noundef captures(none) %0, i32 noundef %1, i32 noundef %2, i32 noundef %3, i32 noundef %4) local_unnamed_addr #0 {
  %6 = shl i32 %2, 6
  %7 = or i32 %6, %1
  %8 = shl i32 %3, 23
  %9 = or i32 %7, %8
  %10 = shl i32 %4, 14
  %11 = or i32 %9, %10
  %12 = getelementptr inbounds nuw i8, ptr %0, i64 24
  %13 = load ptr, ptr %12, align 8, !tbaa !30
  %14 = getelementptr inbounds nuw i8, ptr %13, i64 8
  %15 = load i32, ptr %14, align 8, !tbaa !31
  %16 = tail call fastcc i32 @luaK_code(ptr noundef %0, i32 noundef %11, i32 noundef %15)
  ret i32 %16
}